target datalayout = "e-m:e-p270:32:32-p271:32:32-p272:64:64-i64:64-i128:128-f80:128-n8:16:32:64-S128"
target triple = "x86_64-pc-linux-gnu"

%struct.pmix_class_t = type { ptr, ptr, ptr, ptr, i32, i32, ptr, ptr, i64 }
%struct.pmix_object_t = type { %union.pthread_mutex_t, ptr, i32, %struct.pmix_tma }
%union.pthread_mutex_t = type { %struct.__pthread_mutex_s }
%struct.__pthread_mutex_s = type { i32, i32, i32, i32, i32, i16, i16, %struct.__pthread_internal_list }
%struct.__pthread_internal_list = type { ptr, ptr }
%struct.pmix_tma = type { ptr, ptr, ptr, ptr, ptr, ptr, ptr, ptr }
%struct.pmix_list_item_t = type { %struct.pmix_object_t, ptr, ptr, i32 }
%struct.event = type { %struct.event_callback, %union.anon.0, i32, ptr, %union.anon.2, i16, i16, %struct.timeval }
%struct.event_callback = type { %struct.anon, i16, i8, i8, %union.anon, ptr }
%struct.anon = type { ptr, ptr }
%union.anon = type { ptr }
%union.anon.0 = type { %struct.anon.1 }
%struct.anon.1 = type { ptr, ptr }
%union.anon.2 = type { %struct.anon.3 }
%struct.anon.3 = type { %struct.anon.4, %struct.timeval }
%struct.anon.4 = type { ptr, ptr }
%struct.timeval = type { i64, i64 }
%struct.local_jobtracker_t = type { %struct.pmix_list_item_t, ptr, %struct.event, [256 x i8], %struct.pmix_pointer_array_t, i32 }
%struct.pmix_pointer_array_t = type { %struct.pmix_object_t, i32, i32, i32, i32, i32, ptr, ptr }

@.str.2 = private unnamed_addr constant [21 x i8] c"pthread_mutex_lock()\00", align 1

; Function Attrs: inlinehint nounwind uwtable
define internal void @pmix_tma_free(ptr noundef %0, ptr noundef %1) #2 {
  %3 = alloca ptr, align 8
  %4 = alloca ptr, align 8
  store ptr %0, ptr %3, align 8, !tbaa !71
  store ptr %1, ptr %4, align 8, !tbaa !48
  %5 = load ptr, ptr %3, align 8, !tbaa !71
  %6 = icmp ne ptr null, %5
  br i1 %6, label %7, label %13

7:                                                ; preds = %2
  %8 = load ptr, ptr %3, align 8, !tbaa !71
  %9 = getelementptr inbounds nuw %struct.pmix_tma, ptr %8, i32 0, i32 5
  %10 = load ptr, ptr %9, align 8, !tbaa !89
  %11 = load ptr, ptr %3, align 8, !tbaa !71
  %12 = load ptr, ptr %4, align 8, !tbaa !48
  call void %10(ptr noundef %11, ptr noundef %12)
  br label %15

13:                                               ; preds = %2
  %14 = load ptr, ptr %4, align 8, !tbaa !48
  call void @free(ptr noundef %14) #14
  br label %15

15:                                               ; preds = %13, %7
  ret void
}

; Function Attrs: inlinehint nounwind uwtable
define internal void @pmix_obj_run_destructors(ptr noundef %0) #2 {
  %2 = alloca ptr, align 8
  %3 = alloca ptr, align 8
  store ptr %0, ptr %2, align 8, !tbaa !53
  call void @llvm.lifetime.start.p0(i64 8, ptr %3) #14
  %4 = load ptr, ptr %2, align 8, !tbaa !53
  %5 = getelementptr inbounds nuw %struct.pmix_object_t, ptr %4, i32 0, i32 1
  %6 = load ptr, ptr %5, align 8, !tbaa !46
  %7 = getelementptr inbounds nuw %struct.pmix_class_t, ptr %6, i32 0, i32 7
  %8 = load ptr, ptr %7, align 8, !tbaa !87
  store ptr %8, ptr %3, align 8, !tbaa !48
  br label %9

9:                                                ; preds = %13, %1
  %10 = load ptr, ptr %3, align 8, !tbaa !48
  %11 = load ptr, ptr %10, align 8, !tbaa !48
  %12 = icmp ne ptr null, %11
  br i1 %12, label %13, label %19

13:                                               ; preds = %9
  %14 = load ptr, ptr %3, align 8, !tbaa !48
  %15 = load ptr, ptr %14, align 8, !tbaa !48
  %16 = load ptr, ptr %2, align 8, !tbaa !53
  call void %15(ptr noundef %16)
  %17 = load ptr, ptr %3, align 8, !tbaa !48
  %18 = getelementptr inbounds nuw ptr, ptr %17, i32 1
  store ptr %18, ptr %3, align 8, !tbaa !48
  br label %9, !llvm.loop !88

19:                                               ; preds = %9
  call void @llvm.lifetime.end.p0(i64 8, ptr %3) #14
  ret void
}

; Function Attrs: alwaysinline nounwind uwtable
define internal i32 @pmix_obj_update(ptr noundef %0, i32 noundef %1) #6 {
  %3 = alloca ptr, align 8
  %4 = alloca i32, align 4
  %5 = alloca i32, align 4
  store ptr %0, ptr %3, align 8, !tbaa !53
  store i32 %1, ptr %4, align 4, !tbaa !30
  call void @llvm.lifetime.start.p0(i64 4, ptr %5) #14
  %6 = load ptr, ptr %3, align 8, !tbaa !53
  %7 = getelementptr inbounds nuw %struct.pmix_object_t, ptr %6, i32 0, i32 0
  %8 = call i32 @pthread_mutex_lock(ptr noundef %7) #14
  store i32 %8, ptr %5, align 4, !tbaa !30
  %9 = load i32, ptr %5, align 4, !tbaa !30
  %10 = icmp eq i32 %9, 35
  br i1 %10, label %11, label %14

11:                                               ; preds = %2
  %12 = load i32, ptr %5, align 4, !tbaa !30
  %13 = call ptr @__errno_location() #15
  store i32 %12, ptr %13, align 4, !tbaa !30
  call void @perror(ptr noundef @.str.2)
  call void @abort() #17
  unreachable

14:                                               ; preds = %2
  %15 = load i32, ptr %4, align 4, !tbaa !30
  %16 = load ptr, ptr %3, align 8, !tbaa !53
  %17 = getelementptr inbounds nuw %struct.pmix_object_t, ptr %16, i32 0, i32 2
  %18 = load i32, ptr %17, align 8, !tbaa !47
  %19 = add nsw i32 %18, %15
  store i32 %19, ptr %17, align 8, !tbaa !47
  store i32 %19, ptr %5, align 4, !tbaa !30
  %20 = load ptr, ptr %3, align 8, !tbaa !53
  %21 = getelementptr inbounds nuw %struct.pmix_object_t, ptr %20, i32 0, i32 0
  %22 = call i32 @pthread_mutex_unlock(ptr noundef %21) #14
  %23 = load i32, ptr %5, align 4, !tbaa !30
  call void @llvm.lifetime.end.p0(i64 4, ptr %5) #14
  ret i32 %23
}

; Function Attrs: inlinehint nounwind uwtable
define internal ptr @pmix_pointer_array_get_item(ptr noundef %0, i32 noundef %1) #2 {
  %3 = alloca ptr, align 8
  %4 = alloca ptr, align 8
  %5 = alloca i32, align 4
  %6 = alloca ptr, align 8
  %7 = alloca i32, align 4
  store ptr %0, ptr %4, align 8, !tbaa !83
  store i32 %1, ptr %5, align 4, !tbaa !30
  call void @llvm.lifetime.start.p0(i64 8, ptr %6) #14
  %8 = load i32, ptr %5, align 4, !tbaa !30
  %9 = icmp sgt i32 0, %8
  br i1 %9, label %16, label %10

10:                                               ; preds = %2
  %11 = load ptr, ptr %4, align 8, !tbaa !83
  %12 = getelementptr inbounds nuw %struct.pmix_pointer_array_t, ptr %11, i32 0, i32 3
  %13 = load i32, ptr %12, align 8, !tbaa !85
  %14 = load i32, ptr %5, align 4, !tbaa !30
  %15 = icmp sle i32 %13, %14
  br label %16

16:                                               ; preds = %10, %2
  %17 = phi i1 [ true, %2 ], [ %15, %10 ]
  %18 = xor i1 %17, true
  %19 = xor i1 %18, true
  %20 = zext i1 %19 to i32
  %21 = sext i32 %20 to i64
  %22 = call i64 @llvm.expect.i64(i64 %21, i64 0)
  %23 = icmp ne i64 %22, 0
  br i1 %23, label %24, label %25

24:                                               ; preds = %16
  store ptr null, ptr %3, align 8
  store i32 1, ptr %7, align 4
  br label %34

25:                                               ; preds = %16
  %26 = load ptr, ptr %4, align 8, !tbaa !83
  %27 = getelementptr inbounds nuw %struct.pmix_pointer_array_t, ptr %26, i32 0, i32 7
  %28 = load ptr, ptr %27, align 8, !tbaa !86
  %29 = load i32, ptr %5, align 4, !tbaa !30
  %30 = sext i32 %29 to i64
  %31 = getelementptr inbounds ptr, ptr %28, i64 %30
  %32 = load ptr, ptr %31, align 8, !tbaa !48
  store ptr %32, ptr %6, align 8, !tbaa !48
  %33 = load ptr, ptr %6, align 8, !tbaa !48
  store ptr %33, ptr %3, align 8
  store i32 1, ptr %7, align 4
  br label %34

34:                                               ; preds = %25, %24
  call void @llvm.lifetime.end.p0(i64 8, ptr %6) #14
  %35 = load ptr, ptr %3, align 8
  ret ptr %35
}

; Function Attrs: nounwind uwtable
define internal void @jtrk_des(ptr noundef %0) #0 {
  %2 = alloca ptr, align 8
  %3 = alloca i32, align 4
  %4 = alloca ptr, align 8
  %5 = alloca ptr, align 8
  store ptr %0, ptr %2, align 8, !tbaa !48
  call void @llvm.lifetime.start.p0(i64 4, ptr %3) #14
  call void @llvm.lifetime.start.p0(i64 8, ptr %4) #14
  %6 = load ptr, ptr %2, align 8, !tbaa !48
  %7 = getelementptr inbounds nuw %struct.local_jobtracker_t, ptr %6, i32 0, i32 1
  %8 = load ptr, ptr %7, align 8, !tbaa !58
  %9 = icmp ne ptr null, %8
  br i1 %9, label %10, label %14

10:                                               ; preds = %1
  %11 = load ptr, ptr %2, align 8, !tbaa !48
  %12 = getelementptr inbounds nuw %struct.local_jobtracker_t, ptr %11, i32 0, i32 1
  %13 = load ptr, ptr %12, align 8, !tbaa !58
  call void @free(ptr noundef %13) #14
  br label %14

14:                                               ; preds = %10, %1
  store i32 0, ptr %3, align 4, !tbaa !30
  br label %15

15:                                               ; preds = %52, %14
  %16 = load i32, ptr %3, align 4, !tbaa !30
  %17 = load ptr, ptr %2, align 8, !tbaa !48
  %18 = getelementptr inbounds nuw %struct.local_jobtracker_t, ptr %17, i32 0, i32 4
  %19 = getelementptr inbounds nuw %struct.pmix_pointer_array_t, ptr %18, i32 0, i32 3
  %20 = load i32, ptr %19, align 8, !tbaa !69
  %21 = icmp slt i32 %16, %20
  br i1 %21, label %22, label %55

22:                                               ; preds = %15
  %23 = load ptr, ptr %2, align 8, !tbaa !48
  %24 = getelementptr inbounds nuw %struct.local_jobtracker_t, ptr %23, i32 0, i32 4
  %25 = load i32, ptr %3, align 4, !tbaa !30
  %26 = call ptr @pmix_pointer_array_get_item(ptr noundef %24, i32 noundef %25)
  store ptr %26, ptr %4, align 8, !tbaa !48
  %27 = icmp ne ptr null, %26
  br i1 %27, label %28, label %51

28:                                               ; preds = %22
  br label %29

29:                                               ; preds = %28
  call void @llvm.lifetime.start.p0(i64 8, ptr %5) #14
  %30 = load ptr, ptr %4, align 8, !tbaa !48
  store ptr %30, ptr %5, align 8, !tbaa !53
  %31 = load ptr, ptr %5, align 8, !tbaa !53
  %32 = call i32 @pmix_obj_update(ptr noundef %31, i32 noundef -1)
  %33 = icmp eq i32 0, %32
  br i1 %33, label %34, label %48

34:                                               ; preds = %29
  %35 = load ptr, ptr %5, align 8, !tbaa !53
  call void @pmix_obj_run_destructors(ptr noundef %35)
  %36 = load ptr, ptr %5, align 8, !tbaa !53
  %37 = getelementptr inbounds nuw %struct.pmix_object_t, ptr %36, i32 0, i32 3
  %38 = getelementptr inbounds nuw %struct.pmix_tma, ptr %37, i32 0, i32 5
  %39 = load ptr, ptr %38, align 8, !tbaa !55
  %40 = icmp ne ptr null, %39
  br i1 %40, label %41, label %45

41:                                               ; preds = %34
  %42 = load ptr, ptr %5, align 8, !tbaa !53
  %43 = getelementptr inbounds nuw %struct.pmix_object_t, ptr %42, i32 0, i32 3
  %44 = load ptr, ptr %4, align 8, !tbaa !48
  call void @pmix_tma_free(ptr noundef %43, ptr noundef %44)
  br label %47

45:                                               ; preds = %34
  %46 = load ptr, ptr %4, align 8, !tbaa !48
  call void @free(ptr noundef %46) #14
  br label %47

47:                                               ; preds = %45, %41
  store ptr null, ptr %4, align 8, !tbaa !48
  br label %48

48:                                               ; preds = %47, %29
  call void @llvm.lifetime.end.p0(i64 8, ptr %5) #14
  br label %49

49:                                               ; preds = %48
  br label %50

50:                                               ; preds = %49
  br label %51

51:                                               ; preds = %50, %22
  br label %52

52:                                               ; preds = %51
  %53 = load i32, ptr %3, align 4, !tbaa !30
  %54 = add nsw i32 %53, 1
  store i32 %54, ptr %3, align 4, !tbaa !30
  br label %15, !llvm.loop !70

55:                                               ; preds = %15
  br label %56

56:                                               ; preds = %55
  %57 = load ptr, ptr %2, align 8, !tbaa !48
  %58 = getelementptr inbounds nuw %struct.local_jobtracker_t, ptr %57, i32 0, i32 4
  call void @pmix_obj_run_destructors(ptr noundef %58)
  br label %59

59:                                               ; preds = %56
  br label %60

60:                                               ; preds = %59
  call void @llvm.lifetime.end.p0(i64 8, ptr %4) #14
  call void @llvm.lifetime.end.p0(i64 4, ptr %3) #14
  ret void
}