; Function Attrs: nounwind uwtable
define internal void @jtrk_des(ptr noundef %0) #0 {
  %2 = getelementptr inbounds nuw i8, ptr %0, i64 144
  %3 = load ptr, ptr %2, align 8, !tbaa !85
  %.not = icmp eq ptr %3, null
  br i1 %.not, label %5, label %4

4:                                                ; preds = %1
  tail call void @free(ptr noundef nonnull %3) #20
  br label %5

5:                                                ; preds = %4, %1
  %6 = getelementptr inbounds nuw i8, ptr %0, i64 664
  %7 = load i32, ptr %6, align 8, !tbaa !93
  %8 = icmp sgt i32 %7, 0
  br i1 %8, label %.lr.ph, label %._crit_edge

.lr.ph:                                           ; preds = %5
  %9 = getelementptr inbounds nuw i8, ptr %0, i64 688
  br label %10

10:                                               ; preds = %.lr.ph, %pmix_pointer_array_get_item.exit.thread
  %11 = phi i32 [ %7, %.lr.ph ], [ %40, %pmix_pointer_array_get_item.exit.thread ]
  %indvars.iv = phi i64 [ 0, %.lr.ph ], [ %indvars.iv.next, %pmix_pointer_array_get_item.exit.thread ]
  %12 = sext i32 %11 to i64
  %.not.i = icmp slt i64 %indvars.iv, %12
  br i1 %.not.i, label %pmix_pointer_array_get_item.exit, label %pmix_pointer_array_get_item.exit.thread, !prof !94

pmix_pointer_array_get_item.exit:                 ; preds = %10
  %13 = load ptr, ptr %9, align 8, !tbaa !68
  %14 = getelementptr inbounds nuw ptr, ptr %13, i64 %indvars.iv
  %15 = load ptr, ptr %14, align 8, !tbaa !48
  %.not16 = icmp eq ptr %15, null
  br i1 %.not16, label %pmix_pointer_array_get_item.exit.thread, label %16

16:                                               ; preds = %pmix_pointer_array_get_item.exit
  %17 = tail call i32 @pthread_mutex_lock(ptr noundef nonnull %15) #20
  %18 = icmp eq i32 %17, 35
  br i1 %18, label %19, label %pmix_obj_update.exit

19:                                               ; preds = %16
  %20 = tail call ptr @__errno_location() #22
  store i32 35, ptr %20, align 4, !tbaa !30
  tail call void @perror(ptr noundef nonnull @.str.2) #24
  tail call void @abort() #25
  unreachable

pmix_obj_update.exit:                             ; preds = %16
  %21 = getelementptr inbounds nuw i8, ptr %15, i64 48
  %22 = load i32, ptr %21, align 8, !tbaa !46
  %23 = add nsw i32 %22, -1
  store i32 %23, ptr %21, align 8, !tbaa !46
  %24 = tail call i32 @pthread_mutex_unlock(ptr noundef nonnull %15) #20
  %25 = icmp eq i32 %23, 0
  br i1 %25, label %26, label %pmix_pointer_array_get_item.exit.thread

26:                                               ; preds = %pmix_obj_update.exit
  %27 = getelementptr inbounds nuw i8, ptr %15, i64 40
  %28 = load ptr, ptr %27, align 8, !tbaa !45
  %29 = getelementptr inbounds nuw i8, ptr %28, i64 48
  %30 = load ptr, ptr %29, align 8, !tbaa !81
  %31 = load ptr, ptr %30, align 8, !tbaa !48
  %.not6.i = icmp eq ptr %31, null
  br i1 %.not6.i, label %pmix_obj_run_destructors.exit, label %.lr.ph.i

.lr.ph.i:                                         ; preds = %26, %.lr.ph.i
  %32 = phi ptr [ %34, %.lr.ph.i ], [ %31, %26 ]
  %.07.i = phi ptr [ %33, %.lr.ph.i ], [ %30, %26 ]
  tail call void %32(ptr noundef nonnull %15) #20
  %33 = getelementptr inbounds nuw i8, ptr %.07.i, i64 8
  %34 = load ptr, ptr %33, align 8, !tbaa !48
  %.not.i18 = icmp eq ptr %34, null
  br i1 %.not.i18, label %pmix_obj_run_destructors.exit, label %.lr.ph.i, !llvm.loop !82

pmix_obj_run_destructors.exit:                    ; preds = %.lr.ph.i, %26
  %35 = getelementptr inbounds nuw i8, ptr %15, i64 96
  %36 = load ptr, ptr %35, align 8, !tbaa !83
  %.not17 = icmp eq ptr %36, null
  br i1 %.not17, label %39, label %37

37:                                               ; preds = %pmix_obj_run_destructors.exit
  %38 = getelementptr inbounds nuw i8, ptr %15, i64 56
  tail call void %36(ptr noundef nonnull %38, ptr noundef nonnull %15) #20
  br label %pmix_pointer_array_get_item.exit.thread

39:                                               ; preds = %pmix_obj_run_destructors.exit
  tail call void @free(ptr noundef nonnull %15) #20
  br label %pmix_pointer_array_get_item.exit.thread

pmix_pointer_array_get_item.exit.thread:          ; preds = %10, %pmix_obj_update.exit, %39, %37, %pmix_pointer_array_get_item.exit
  %indvars.iv.next = add nuw nsw i64 %indvars.iv, 1
  %40 = load i32, ptr %6, align 8, !tbaa !93
  %41 = sext i32 %40 to i64
  %42 = icmp slt i64 %indvars.iv.next, %41
  br i1 %42, label %10, label %._crit_edge, !llvm.loop !95

._crit_edge:                                      ; preds = %pmix_pointer_array_get_item.exit.thread, %5
  %43 = getelementptr inbounds nuw i8, ptr %0, i64 536
  %44 = getelementptr inbounds nuw i8, ptr %0, i64 576
  %45 = load ptr, ptr %44, align 8, !tbaa !45
  %46 = getelementptr inbounds nuw i8, ptr %45, i64 48
  %47 = load ptr, ptr %46, align 8, !tbaa !81
  %48 = load ptr, ptr %47, align 8, !tbaa !48
  %.not6.i19 = icmp eq ptr %48, null
  br i1 %.not6.i19, label %pmix_obj_run_destructors.exit23, label %.lr.ph.i20

.lr.ph.i20:                                       ; preds = %._crit_edge, %.lr.ph.i20
  %49 = phi ptr [ %51, %.lr.ph.i20 ], [ %48, %._crit_edge ]
  %.07.i21 = phi ptr [ %50, %.lr.ph.i20 ], [ %47, %._crit_edge ]
  tail call void %49(ptr noundef nonnull %43) #20
  %50 = getelementptr inbounds nuw i8, ptr %.07.i21, i64 8
  %51 = load ptr, ptr %50, align 8, !tbaa !48
  %.not.i22 = icmp eq ptr %51, null
  br i1 %.not.i22, label %pmix_obj_run_destructors.exit23, label %.lr.ph.i20, !llvm.loop !82

pmix_obj_run_destructors.exit23:                  ; preds = %.lr.ph.i20, %._crit_edge
  ret void
}